
main_debug:	file format mach-o arm64

Disassembly of section __TEXT,__text:

00000001000004b0 <_calculate_average>:
1000004b0: d10083ff    	sub	sp, sp, #0x20
1000004b4: f9000fe0    	str	x0, [sp, #0x18]
1000004b8: b90017e1    	str	w1, [sp, #0x14]
1000004bc: b90013ff    	str	wzr, [sp, #0x10]
1000004c0: b9000fff    	str	wzr, [sp, #0xc]
1000004c4: b9000fff    	str	wzr, [sp, #0xc]
1000004c8: 14000001    	b	0x1000004cc <_calculate_average+0x1c>
1000004cc: b9400fe8    	ldr	w8, [sp, #0xc]
1000004d0: b94017e9    	ldr	w9, [sp, #0x14]
1000004d4: 6b090108    	subs	w8, w8, w9
1000004d8: 540001aa    	b.ge	0x10000050c <_calculate_average+0x5c>
1000004dc: 14000001    	b	0x1000004e0 <_calculate_average+0x30>
1000004e0: f9400fe8    	ldr	x8, [sp, #0x18]
1000004e4: b9800fe9    	ldrsw	x9, [sp, #0xc]
1000004e8: 78e97909    	ldrsh	w9, [x8, x9, lsl #1]
1000004ec: b94013e8    	ldr	w8, [sp, #0x10]
1000004f0: 0b090108    	add	w8, w8, w9
1000004f4: b90013e8    	str	w8, [sp, #0x10]
1000004f8: 14000001    	b	0x1000004fc <_calculate_average+0x4c>
1000004fc: b9400fe8    	ldr	w8, [sp, #0xc]
100000500: 11000508    	add	w8, w8, #0x1
100000504: b9000fe8    	str	w8, [sp, #0xc]
100000508: 17fffff1    	b	0x1000004cc <_calculate_average+0x1c>
10000050c: b94013e8    	ldr	w8, [sp, #0x10]
100000510: b94017e9    	ldr	w9, [sp, #0x14]
100000514: 1ac90d08    	sdiv	w8, w8, w9
100000518: 13003d00    	sxth	w0, w8
10000051c: 910083ff    	add	sp, sp, #0x20
100000520: d65f03c0    	ret

0000000100000524 <_compare_student_desc>:
100000524: d10083ff    	sub	sp, sp, #0x20
100000528: f9000fe0    	str	x0, [sp, #0x18]
10000052c: f9000be1    	str	x1, [sp, #0x10]
100000530: f9400fe8    	ldr	x8, [sp, #0x18]
100000534: f90007e8    	str	x8, [sp, #0x8]
100000538: f9400be8    	ldr	x8, [sp, #0x10]
10000053c: f90003e8    	str	x8, [sp]
100000540: f94003e8    	ldr	x8, [sp]
100000544: 79c04908    	ldrsh	w8, [x8, #0x24]
100000548: f94007e9    	ldr	x9, [sp, #0x8]
10000054c: 79c04929    	ldrsh	w9, [x9, #0x24]
100000550: 6b090100    	subs	w0, w8, w9
100000554: 910083ff    	add	sp, sp, #0x20
100000558: d65f03c0    	ret

000000010000055c <_print_result>:
10000055c: d10103ff    	sub	sp, sp, #0x40
100000560: a9037bfd    	stp	x29, x30, [sp, #0x30]
100000564: 9100c3fd    	add	x29, sp, #0x30
100000568: f81f83a0    	stur	x0, [x29, #-0x8]
10000056c: b81f43a1    	stur	w1, [x29, #-0xc]
100000570: b81f03bf    	stur	wzr, [x29, #-0x10]
100000574: 90000000    	adrp	x0, 0x100000000 <_qsort+0x100000000>
100000578: 91224000    	add	x0, x0, #0x890
10000057c: 940000b6    	bl	0x100000854 <_qsort+0x100000854>
100000580: 910003e9    	mov	x9, sp
100000584: 90000008    	adrp	x8, 0x100000000 <_qsort+0x100000000>
100000588: 91235908    	add	x8, x8, #0x8d6
10000058c: f9000128    	str	x8, [x9]
100000590: 90000008    	adrp	x8, 0x100000000 <_qsort+0x100000000>
100000594: 91237508    	add	x8, x8, #0x8dd
100000598: f9000528    	str	x8, [x9, #0x8]
10000059c: 90000008    	adrp	x8, 0x100000000 <_qsort+0x100000000>
1000005a0: 91239108    	add	x8, x8, #0x8e4
1000005a4: f9000928    	str	x8, [x9, #0x10]
1000005a8: 90000008    	adrp	x8, 0x100000000 <_qsort+0x100000000>
1000005ac: 9123ad08    	add	x8, x8, #0x8eb
1000005b0: f9000d28    	str	x8, [x9, #0x18]
1000005b4: 90000000    	adrp	x0, 0x100000000 <_qsort+0x100000000>
1000005b8: 9122fc00    	add	x0, x0, #0x8bf
1000005bc: 940000a6    	bl	0x100000854 <_qsort+0x100000854>
1000005c0: b81f03bf    	stur	wzr, [x29, #-0x10]
1000005c4: 14000001    	b	0x1000005c8 <_print_result+0x6c>
1000005c8: b85f03a8    	ldur	w8, [x29, #-0x10]
1000005cc: b85f43a9    	ldur	w9, [x29, #-0xc]
1000005d0: 6b090108    	subs	w8, w8, w9
1000005d4: 5400044a    	b.ge	0x10000065c <_print_result+0x100>
1000005d8: 14000001    	b	0x1000005dc <_print_result+0x80>
1000005dc: b85f03a8    	ldur	w8, [x29, #-0x10]
1000005e0: 1100050d    	add	w13, w8, #0x1
1000005e4: f85f83a8    	ldur	x8, [x29, #-0x8]
1000005e8: b89f03a9    	ldursw	x9, [x29, #-0x10]
1000005ec: d28004cc    	mov	x12, #0x26              ; =38
1000005f0: 9b0c7d29    	mul	x9, x9, x12
1000005f4: 8b09010b    	add	x11, x8, x9
1000005f8: f85f83a8    	ldur	x8, [x29, #-0x8]
1000005fc: b89f03a9    	ldursw	x9, [x29, #-0x10]
100000600: 9b0c7d29    	mul	x9, x9, x12
100000604: 8b090108    	add	x8, x8, x9
100000608: 91002108    	add	x8, x8, #0x8
10000060c: f85f83a9    	ldur	x9, [x29, #-0x8]
100000610: b89f03aa    	ldursw	x10, [x29, #-0x10]
100000614: 9b0c7d4a    	mul	x10, x10, x12
100000618: 8b0a0129    	add	x9, x9, x10
10000061c: 79c0492a    	ldrsh	w10, [x9, #0x24]
100000620: 910003e9    	mov	x9, sp
100000624: aa0d03ec    	mov	x12, x13
100000628: f900012c    	str	x12, [x9]
10000062c: f900052b    	str	x11, [x9, #0x8]
100000630: f9000928    	str	x8, [x9, #0x10]
100000634: aa0a03e8    	mov	x8, x10
100000638: f9000d28    	str	x8, [x9, #0x18]
10000063c: 90000000    	adrp	x0, 0x100000000 <_qsort+0x100000000>
100000640: 9123d400    	add	x0, x0, #0x8f5
100000644: 94000084    	bl	0x100000854 <_qsort+0x100000854>
100000648: 14000001    	b	0x10000064c <_print_result+0xf0>
10000064c: b85f03a8    	ldur	w8, [x29, #-0x10]
100000650: 11000508    	add	w8, w8, #0x1
100000654: b81f03a8    	stur	w8, [x29, #-0x10]
100000658: 17ffffdc    	b	0x1000005c8 <_print_result+0x6c>
10000065c: a9437bfd    	ldp	x29, x30, [sp, #0x30]
100000660: 910103ff    	add	sp, sp, #0x40
100000664: d65f03c0    	ret

0000000100000668 <_main>:
100000668: d10483ff    	sub	sp, sp, #0x120
10000066c: a9106ffc    	stp	x28, x27, [sp, #0x100]
100000670: a9117bfd    	stp	x29, x30, [sp, #0x110]
100000674: 910443fd    	add	x29, sp, #0x110
100000678: 90000028    	adrp	x8, 0x100004000 <_qsort+0x100004000>
10000067c: f9400508    	ldr	x8, [x8, #0x8]
100000680: f9400108    	ldr	x8, [x8]
100000684: f81e83a8    	stur	x8, [x29, #-0x18]
100000688: b90083ff    	str	wzr, [sp, #0x80]
10000068c: 91021be0    	add	x0, sp, #0x86
100000690: d2800e42    	mov	x2, #0x72               ; =114
100000694: 90000001    	adrp	x1, 0x100000000 <_qsort+0x100000000>
100000698: 91256821    	add	x1, x1, #0x95a
10000069c: 94000071    	bl	0x100000860 <_qsort+0x100000860>
1000006a0: b9007fff    	str	wzr, [sp, #0x7c]
1000006a4: 94000072    	bl	0x10000086c <_qsort+0x10000086c>
1000006a8: f9003be0    	str	x0, [sp, #0x70]
1000006ac: b9007fff    	str	wzr, [sp, #0x7c]
1000006b0: 14000001    	b	0x1000006b4 <_main+0x4c>
1000006b4: b9407fe8    	ldr	w8, [sp, #0x7c]
1000006b8: 71000d08    	subs	w8, w8, #0x3
1000006bc: 540002ea    	b.ge	0x100000718 <_main+0xb0>
1000006c0: 14000001    	b	0x1000006c4 <_main+0x5c>
1000006c4: b9807fe8    	ldrsw	x8, [sp, #0x7c]
1000006c8: d28004c9    	mov	x9, #0x26               ; =38
1000006cc: f9001fe9    	str	x9, [sp, #0x38]
1000006d0: 9b097d09    	mul	x9, x8, x9
1000006d4: 91021be8    	add	x8, sp, #0x86
1000006d8: f90023e8    	str	x8, [sp, #0x40]
1000006dc: 8b090108    	add	x8, x8, x9
1000006e0: 91005100    	add	x0, x8, #0x14
1000006e4: 52800101    	mov	w1, #0x8                ; =8
1000006e8: 97ffff72    	bl	0x1000004b0 <_calculate_average>
1000006ec: f9401fea    	ldr	x10, [sp, #0x38]
1000006f0: f94023e8    	ldr	x8, [sp, #0x40]
1000006f4: b9807fe9    	ldrsw	x9, [sp, #0x7c]
1000006f8: 9b0a7d29    	mul	x9, x9, x10
1000006fc: 8b090108    	add	x8, x8, x9
100000700: 79004900    	strh	w0, [x8, #0x24]
100000704: 14000001    	b	0x100000708 <_main+0xa0>
100000708: b9407fe8    	ldr	w8, [sp, #0x7c]
10000070c: 11000508    	add	w8, w8, #0x1
100000710: b9007fe8    	str	w8, [sp, #0x7c]
100000714: 17ffffe8    	b	0x1000006b4 <_main+0x4c>
100000718: 94000055    	bl	0x10000086c <_qsort+0x10000086c>
10000071c: f90037e0    	str	x0, [sp, #0x68]
100000720: f94037e8    	ldr	x8, [sp, #0x68]
100000724: f9403be9    	ldr	x9, [sp, #0x70]
100000728: eb090108    	subs	x8, x8, x9
10000072c: 9e630100    	ucvtf	d0, x8
100000730: d2c80008    	mov	x8, #0x400000000000     ; =70368744177664
100000734: f2e811e8    	movk	x8, #0x408f, lsl #48
100000738: 9e670101    	fmov	d1, x8
10000073c: fd001be1    	str	d1, [sp, #0x30]
100000740: 1e610800    	fmul	d0, d0, d1
100000744: d2d09008    	mov	x8, #0x848000000000     ; =145685290680320
100000748: f2e825c8    	movk	x8, #0x412e, lsl #48
10000074c: 9e670101    	fmov	d1, x8
100000750: fd000fe1    	str	d1, [sp, #0x18]
100000754: 1e611800    	fdiv	d0, d0, d1
100000758: fd002be0    	str	d0, [sp, #0x50]
10000075c: 91021be0    	add	x0, sp, #0x86
100000760: f90017e0    	str	x0, [sp, #0x28]
100000764: 52800061    	mov	w1, #0x3                ; =3
100000768: b90027e1    	str	w1, [sp, #0x24]
10000076c: 97ffff7c    	bl	0x10000055c <_print_result>
100000770: 9400003f    	bl	0x10000086c <_qsort+0x10000086c>
100000774: aa0003e8    	mov	x8, x0
100000778: f94017e0    	ldr	x0, [sp, #0x28]
10000077c: f90033e8    	str	x8, [sp, #0x60]
100000780: d2800061    	mov	x1, #0x3                ; =3
100000784: d28004c2    	mov	x2, #0x26               ; =38
100000788: 90000003    	adrp	x3, 0x100000000 <_qsort+0x100000000>
10000078c: 91149063    	add	x3, x3, #0x524
100000790: 9400003a    	bl	0x100000878 <_qsort+0x100000878>
100000794: 94000036    	bl	0x10000086c <_qsort+0x10000086c>
100000798: fd400fe1    	ldr	d1, [sp, #0x18]
10000079c: b94027e1    	ldr	w1, [sp, #0x24]
1000007a0: fd401be2    	ldr	d2, [sp, #0x30]
1000007a4: aa0003e8    	mov	x8, x0
1000007a8: f94017e0    	ldr	x0, [sp, #0x28]
1000007ac: f9002fe8    	str	x8, [sp, #0x58]
1000007b0: f9402fe8    	ldr	x8, [sp, #0x58]
1000007b4: f94033e9    	ldr	x9, [sp, #0x60]
1000007b8: eb090108    	subs	x8, x8, x9
1000007bc: 9e630100    	ucvtf	d0, x8
1000007c0: 1e620800    	fmul	d0, d0, d2
1000007c4: 1e611800    	fdiv	d0, d0, d1
1000007c8: fd0027e0    	str	d0, [sp, #0x48]
1000007cc: 97ffff64    	bl	0x10000055c <_print_result>
1000007d0: fd401be2    	ldr	d2, [sp, #0x30]
1000007d4: fd402be1    	ldr	d1, [sp, #0x50]
1000007d8: fd402be0    	ldr	d0, [sp, #0x50]
1000007dc: 1e620800    	fmul	d0, d0, d2
1000007e0: 910003e8    	mov	x8, sp
1000007e4: fd000101    	str	d1, [x8]
1000007e8: fd000500    	str	d0, [x8, #0x8]
1000007ec: 90000000    	adrp	x0, 0x100000000 <_qsort+0x100000000>
1000007f0: 91243400    	add	x0, x0, #0x90d
1000007f4: 94000018    	bl	0x100000854 <_qsort+0x100000854>
1000007f8: fd401be2    	ldr	d2, [sp, #0x30]
1000007fc: fd4027e1    	ldr	d1, [sp, #0x48]
100000800: fd4027e0    	ldr	d0, [sp, #0x48]
100000804: 1e620800    	fmul	d0, d0, d2
100000808: 910003e8    	mov	x8, sp
10000080c: fd000101    	str	d1, [x8]
100000810: fd000500    	str	d0, [x8, #0x8]
100000814: 90000000    	adrp	x0, 0x100000000 <_qsort+0x100000000>
100000818: 9124e000    	add	x0, x0, #0x938
10000081c: 9400000e    	bl	0x100000854 <_qsort+0x100000854>
100000820: f85e83a9    	ldur	x9, [x29, #-0x18]
100000824: 90000028    	adrp	x8, 0x100004000 <_qsort+0x100004000>
100000828: f9400508    	ldr	x8, [x8, #0x8]
10000082c: f9400108    	ldr	x8, [x8]
100000830: eb090108    	subs	x8, x8, x9
100000834: 54000060    	b.eq	0x100000840 <_main+0x1d8>
100000838: 14000001    	b	0x10000083c <_main+0x1d4>
10000083c: 94000012    	bl	0x100000884 <_qsort+0x100000884>
100000840: 52800000    	mov	w0, #0x0                ; =0
100000844: a9517bfd    	ldp	x29, x30, [sp, #0x110]
100000848: a9506ffc    	ldp	x28, x27, [sp, #0x100]
10000084c: 910483ff    	add	sp, sp, #0x120
100000850: d65f03c0    	ret

Disassembly of section __TEXT,__stubs:

0000000100000854 <__stubs>:
100000854: 90000030    	adrp	x16, 0x100004000 <_qsort+0x100004000>
100000858: f9400210    	ldr	x16, [x16]
10000085c: d61f0200    	br	x16
100000860: 90000030    	adrp	x16, 0x100004000 <_qsort+0x100004000>
100000864: f9400a10    	ldr	x16, [x16, #0x10]
100000868: d61f0200    	br	x16
10000086c: 90000030    	adrp	x16, 0x100004000 <_qsort+0x100004000>
100000870: f9400e10    	ldr	x16, [x16, #0x18]
100000874: d61f0200    	br	x16
100000878: 90000030    	adrp	x16, 0x100004000 <_qsort+0x100004000>
10000087c: f9401210    	ldr	x16, [x16, #0x20]
100000880: d61f0200    	br	x16
100000884: 90000030    	adrp	x16, 0x100004000 <_qsort+0x100004000>
100000888: f9401610    	ldr	x16, [x16, #0x28]
10000088c: d61f0200    	br	x16
